target datalayout = "e-m:e-p270:32:32-p271:32:32-p272:64:64-i64:64-i128:128-f80:128-n8:16:32:64-S128"
target triple = "x86_64-pc-linux-gnu"

%struct._lv_obj_t = type { ptr, ptr, ptr, ptr, ptr, %struct.lv_area_t, i32, i16, i16 }
%struct.lv_area_t = type { i32, i32, i32, i32 }
%struct.lv_point_t = type { i32, i32 }
%union.lv_style_value_t = type { ptr }

; Function Attrs: inlinehint nounwind uwtable
define internal i32 @lv_obj_get_style_pad_bottom(ptr noundef %0, i32 noundef %1) #3 {
  %3 = alloca ptr, align 8
  %4 = alloca i32, align 4
  %5 = alloca %union.lv_style_value_t, align 8
  store ptr %0, ptr %3, align 8, !tbaa !8
  store i32 %1, ptr %4, align 4, !tbaa !33
  call void @llvm.lifetime.start.p0(i64 8, ptr %5) #5
  %6 = load ptr, ptr %3, align 8, !tbaa !8
  %7 = load i32, ptr %4, align 4, !tbaa !33
  %8 = call ptr @lv_obj_get_style_prop(ptr noundef %6, i32 noundef %7, i8 noundef zeroext 17)
  %9 = getelementptr inbounds nuw %union.lv_style_value_t, ptr %5, i32 0, i32 0
  store ptr %8, ptr %9, align 8
  %10 = load i32, ptr %5, align 8, !tbaa !71
  call void @llvm.lifetime.end.p0(i64 8, ptr %5) #5
  ret i32 %10
}

; Function Attrs: inlinehint nounwind uwtable
define internal i32 @lv_obj_get_style_pad_top(ptr noundef %0, i32 noundef %1) #3 {
  %3 = alloca ptr, align 8
  %4 = alloca i32, align 4
  %5 = alloca %union.lv_style_value_t, align 8
  store ptr %0, ptr %3, align 8, !tbaa !8
  store i32 %1, ptr %4, align 4, !tbaa !33
  call void @llvm.lifetime.start.p0(i64 8, ptr %5) #5
  %6 = load ptr, ptr %3, align 8, !tbaa !8
  %7 = load i32, ptr %4, align 4, !tbaa !33
  %8 = call ptr @lv_obj_get_style_prop(ptr noundef %6, i32 noundef %7, i8 noundef zeroext 16)
  %9 = getelementptr inbounds nuw %union.lv_style_value_t, ptr %5, i32 0, i32 0
  store ptr %8, ptr %9, align 8
  %10 = load i32, ptr %5, align 8, !tbaa !71
  call void @llvm.lifetime.end.p0(i64 8, ptr %5) #5
  ret i32 %10
}

; Function Attrs: inlinehint nounwind uwtable
define internal i32 @lv_obj_get_style_pad_right(ptr noundef %0, i32 noundef %1) #3 {
  %3 = alloca ptr, align 8
  %4 = alloca i32, align 4
  %5 = alloca %union.lv_style_value_t, align 8
  store ptr %0, ptr %3, align 8, !tbaa !8
  store i32 %1, ptr %4, align 4, !tbaa !33
  call void @llvm.lifetime.start.p0(i64 8, ptr %5) #5
  %6 = load ptr, ptr %3, align 8, !tbaa !8
  %7 = load i32, ptr %4, align 4, !tbaa !33
  %8 = call ptr @lv_obj_get_style_prop(ptr noundef %6, i32 noundef %7, i8 noundef zeroext 19)
  %9 = getelementptr inbounds nuw %union.lv_style_value_t, ptr %5, i32 0, i32 0
  store ptr %8, ptr %9, align 8
  %10 = load i32, ptr %5, align 8, !tbaa !71
  call void @llvm.lifetime.end.p0(i64 8, ptr %5) #5
  ret i32 %10
}

; Function Attrs: inlinehint nounwind uwtable
define internal i32 @lv_obj_get_style_pad_left(ptr noundef %0, i32 noundef %1) #3 {
  %3 = alloca ptr, align 8
  %4 = alloca i32, align 4
  %5 = alloca %union.lv_style_value_t, align 8
  store ptr %0, ptr %3, align 8, !tbaa !8
  store i32 %1, ptr %4, align 4, !tbaa !33
  call void @llvm.lifetime.start.p0(i64 8, ptr %5) #5
  %6 = load ptr, ptr %3, align 8, !tbaa !8
  %7 = load i32, ptr %4, align 4, !tbaa !33
  %8 = call ptr @lv_obj_get_style_prop(ptr noundef %6, i32 noundef %7, i8 noundef zeroext 18)
  %9 = getelementptr inbounds nuw %union.lv_style_value_t, ptr %5, i32 0, i32 0
  store ptr %8, ptr %9, align 8
  %10 = load i32, ptr %5, align 8, !tbaa !71
  call void @llvm.lifetime.end.p0(i64 8, ptr %5) #5
  ret i32 %10
}

; Function Attrs: nounwind uwtable
define internal void @get_center(ptr noundef %0, ptr noundef %1, ptr noundef %2) #0 {
  %4 = alloca ptr, align 8
  %5 = alloca ptr, align 8
  %6 = alloca ptr, align 8
  %7 = alloca i32, align 4
  %8 = alloca i32, align 4
  %9 = alloca i32, align 4
  %10 = alloca i32, align 4
  %11 = alloca i32, align 4
  store ptr %0, ptr %4, align 8, !tbaa !8
  store ptr %1, ptr %5, align 8, !tbaa !68
  store ptr %2, ptr %6, align 8, !tbaa !63
  call void @llvm.lifetime.start.p0(i64 4, ptr %7) #5
  %12 = load ptr, ptr %4, align 8, !tbaa !8
  %13 = call i32 @lv_obj_get_style_pad_left(ptr noundef %12, i32 noundef 0)
  store i32 %13, ptr %7, align 4, !tbaa !33
  call void @llvm.lifetime.start.p0(i64 4, ptr %8) #5
  %14 = load ptr, ptr %4, align 8, !tbaa !8
  %15 = call i32 @lv_obj_get_style_pad_right(ptr noundef %14, i32 noundef 0)
  store i32 %15, ptr %8, align 4, !tbaa !33
  call void @llvm.lifetime.start.p0(i64 4, ptr %9) #5
  %16 = load ptr, ptr %4, align 8, !tbaa !8
  %17 = call i32 @lv_obj_get_style_pad_top(ptr noundef %16, i32 noundef 0)
  store i32 %17, ptr %9, align 4, !tbaa !33
  call void @llvm.lifetime.start.p0(i64 4, ptr %10) #5
  %18 = load ptr, ptr %4, align 8, !tbaa !8
  %19 = call i32 @lv_obj_get_style_pad_bottom(ptr noundef %18, i32 noundef 0)
  store i32 %19, ptr %10, align 4, !tbaa !33
  call void @llvm.lifetime.start.p0(i64 4, ptr %11) #5
  %20 = load ptr, ptr %4, align 8, !tbaa !8
  %21 = call i32 @lv_obj_get_width(ptr noundef %20)
  %22 = load i32, ptr %7, align 4, !tbaa !33
  %23 = sub nsw i32 %21, %22
  %24 = load i32, ptr %8, align 4, !tbaa !33
  %25 = sub nsw i32 %23, %24
  %26 = load ptr, ptr %4, align 8, !tbaa !8
  %27 = call i32 @lv_obj_get_height(ptr noundef %26)
  %28 = load i32, ptr %9, align 4, !tbaa !33
  %29 = sub nsw i32 %27, %28
  %30 = load i32, ptr %10, align 4, !tbaa !33
  %31 = sub nsw i32 %29, %30
  %32 = icmp slt i32 %25, %31
  br i1 %32, label %33, label %40

33:                                               ; preds = %3
  %34 = load ptr, ptr %4, align 8, !tbaa !8
  %35 = call i32 @lv_obj_get_width(ptr noundef %34)
  %36 = load i32, ptr %7, align 4, !tbaa !33
  %37 = sub nsw i32 %35, %36
  %38 = load i32, ptr %8, align 4, !tbaa !33
  %39 = sub nsw i32 %37, %38
  br label %47

40:                                               ; preds = %3
  %41 = load ptr, ptr %4, align 8, !tbaa !8
  %42 = call i32 @lv_obj_get_height(ptr noundef %41)
  %43 = load i32, ptr %9, align 4, !tbaa !33
  %44 = sub nsw i32 %42, %43
  %45 = load i32, ptr %10, align 4, !tbaa !33
  %46 = sub nsw i32 %44, %45
  br label %47

47:                                               ; preds = %40, %33
  %48 = phi i32 [ %39, %33 ], [ %46, %40 ]
  %49 = sdiv i32 %48, 2
  store i32 %49, ptr %11, align 4, !tbaa !33
  %50 = load ptr, ptr %4, align 8, !tbaa !8
  %51 = getelementptr inbounds nuw %struct._lv_obj_t, ptr %50, i32 0, i32 5
  %52 = getelementptr inbounds nuw %struct.lv_area_t, ptr %51, i32 0, i32 0
  %53 = load i32, ptr %52, align 8, !tbaa !69
  %54 = load i32, ptr %11, align 4, !tbaa !33
  %55 = add nsw i32 %53, %54
  %56 = load i32, ptr %7, align 4, !tbaa !33
  %57 = add nsw i32 %55, %56
  %58 = load ptr, ptr %5, align 8, !tbaa !68
  %59 = getelementptr inbounds nuw %struct.lv_point_t, ptr %58, i32 0, i32 0
  store i32 %57, ptr %59, align 4, !tbaa !36
  %60 = load ptr, ptr %4, align 8, !tbaa !8
  %61 = getelementptr inbounds nuw %struct._lv_obj_t, ptr %60, i32 0, i32 5
  %62 = getelementptr inbounds nuw %struct.lv_area_t, ptr %61, i32 0, i32 1
  %63 = load i32, ptr %62, align 4, !tbaa !70
  %64 = load i32, ptr %11, align 4, !tbaa !33
  %65 = add nsw i32 %63, %64
  %66 = load i32, ptr %9, align 4, !tbaa !33
  %67 = add nsw i32 %65, %66
  %68 = load ptr, ptr %5, align 8, !tbaa !68
  %69 = getelementptr inbounds nuw %struct.lv_point_t, ptr %68, i32 0, i32 1
  store i32 %67, ptr %69, align 4, !tbaa !38
  %70 = load ptr, ptr %6, align 8, !tbaa !63
  %71 = icmp ne ptr %70, null
  br i1 %71, label %72, label %75

72:                                               ; preds = %47
  %73 = load i32, ptr %11, align 4, !tbaa !33
  %74 = load ptr, ptr %6, align 8, !tbaa !63
  store i32 %73, ptr %74, align 4, !tbaa !33
  br label %75

75:                                               ; preds = %72, %47
  call void @llvm.lifetime.end.p0(i64 4, ptr %11) #5
  call void @llvm.lifetime.end.p0(i64 4, ptr %10) #5
  call void @llvm.lifetime.end.p0(i64 4, ptr %9) #5
  call void @llvm.lifetime.end.p0(i64 4, ptr %8) #5
  call void @llvm.lifetime.end.p0(i64 4, ptr %7) #5
  ret void
}