; Function Attrs: nounwind uwtable
define internal fastcc void @get_center(ptr noundef %0, ptr noundef nonnull writeonly captures(none) initializes((0, 8)) %1, ptr noundef nonnull writeonly captures(none) initializes((0, 4)) %2) unnamed_addr #0 {
  %4 = tail call ptr @lv_obj_get_style_prop(ptr noundef %0, i32 noundef 0, i8 noundef zeroext 18) #7
  %5 = ptrtoint ptr %4 to i64
  %.sroa.0.0.extract.trunc.i = trunc i64 %5 to i32
  %6 = tail call ptr @lv_obj_get_style_prop(ptr noundef %0, i32 noundef 0, i8 noundef zeroext 19) #7
  %7 = ptrtoint ptr %6 to i64
  %.sroa.0.0.extract.trunc.i26 = trunc i64 %7 to i32
  %8 = tail call ptr @lv_obj_get_style_prop(ptr noundef %0, i32 noundef 0, i8 noundef zeroext 16) #7
  %9 = ptrtoint ptr %8 to i64
  %.sroa.0.0.extract.trunc.i27 = trunc i64 %9 to i32
  %10 = tail call ptr @lv_obj_get_style_prop(ptr noundef %0, i32 noundef 0, i8 noundef zeroext 17) #7
  %11 = ptrtoint ptr %10 to i64
  %.sroa.0.0.extract.trunc.i28 = trunc i64 %11 to i32
  %12 = tail call i32 @lv_obj_get_width(ptr noundef %0) #7
  %13 = add i32 %.sroa.0.0.extract.trunc.i26, %.sroa.0.0.extract.trunc.i
  %14 = sub i32 %12, %13
  %15 = tail call i32 @lv_obj_get_height(ptr noundef %0) #7
  %16 = add i32 %.sroa.0.0.extract.trunc.i28, %.sroa.0.0.extract.trunc.i27
  %17 = sub i32 %15, %16
  %18 = icmp slt i32 %14, %17
  br i1 %18, label %19, label %22

19:                                               ; preds = %3
  %20 = tail call i32 @lv_obj_get_width(ptr noundef %0) #7
  %21 = sub i32 %20, %13
  br label %25

22:                                               ; preds = %3
  %23 = tail call i32 @lv_obj_get_height(ptr noundef %0) #7
  %24 = sub i32 %23, %16
  br label %25

25:                                               ; preds = %22, %19
  %26 = phi i32 [ %21, %19 ], [ %24, %22 ]
  %27 = sdiv i32 %26, 2
  %28 = getelementptr inbounds nuw i8, ptr %0, i64 40
  %29 = load i32, ptr %28, align 8, !tbaa !61
  %30 = add i32 %27, %.sroa.0.0.extract.trunc.i
  %31 = add i32 %30, %29
  store i32 %31, ptr %1, align 4, !tbaa !27
  %32 = getelementptr inbounds nuw i8, ptr %0, i64 44
  %33 = load i32, ptr %32, align 4, !tbaa !62
  %34 = add i32 %27, %.sroa.0.0.extract.trunc.i27
  %35 = add i32 %34, %33
  %36 = getelementptr inbounds nuw i8, ptr %1, i64 4
  store i32 %35, ptr %36, align 4, !tbaa !29
  store i32 %27, ptr %2, align 4, !tbaa !30
  ret void
}